; ModuleID = '7/1219.cpp'
source_filename = "7/1219.cpp"
target datalayout = "e-m:e-p270:32:32-p271:32:32-p272:64:64-i64:64-f80:128-n8:16:32:64-S128"
target triple = "x86_64-pc-linux-gnu"

%"class.std::ios_base::Init" = type { i8 }
%"class.std::basic_istream" = type { i32 (...)**, i64, %"class.std::basic_ios" }
%"class.std::basic_ios" = type { %"class.std::ios_base", %"class.std::basic_ostream"*, i8, i8, %"class.std::basic_streambuf"*, %"class.std::ctype"*, %"class.std::num_put"*, %"class.std::num_get"* }
%"class.std::ios_base" = type { i32 (...)**, i64, i64, i32, i32, i32, %"struct.std::ios_base::_Callback_list"*, %"struct.std::ios_base::_Words", [8 x %"struct.std::ios_base::_Words"], i32, %"struct.std::ios_base::_Words"*, %"class.std::locale" }
%"struct.std::ios_base::_Callback_list" = type { %"struct.std::ios_base::_Callback_list"*, void (i32, %"class.std::ios_base"*, i32)*, i32, i32 }
%"struct.std::ios_base::_Words" = type { i8*, i64 }
%"class.std::locale" = type { %"class.std::locale::_Impl"* }
%"class.std::locale::_Impl" = type { i32, %"class.std::locale::facet"**, i64, %"class.std::locale::facet"**, i8** }
%"class.std::locale::facet" = type <{ i32 (...)**, i32, [4 x i8] }>
%"class.std::basic_ostream" = type { i32 (...)**, %"class.std::basic_ios" }
%"class.std::basic_streambuf" = type { i32 (...)**, i8*, i8*, i8*, i8*, i8*, i8*, %"class.std::locale" }
%"class.std::ctype" = type <{ %"class.std::locale::facet.base", [4 x i8], %struct.__locale_struct*, i8, [7 x i8], i32*, i32*, i16*, i8, [256 x i8], [256 x i8], i8, [6 x i8] }>
%"class.std::locale::facet.base" = type <{ i32 (...)**, i32 }>
%struct.__locale_struct = type { [13 x %struct.__locale_data*], i16*, i32*, i32*, [13 x i8*] }
%struct.__locale_data = type opaque
%"class.std::num_put" = type { %"class.std::locale::facet.base", [4 x i8] }
%"class.std::num_get" = type { %"class.std::locale::facet.base", [4 x i8] }

@_ZStL8__ioinit = internal global %"class.std::ios_base::Init" zeroinitializer, align 1
@__dso_handle = external hidden global i8
@_ZSt3cin = external dso_local global %"class.std::basic_istream", align 8
@_ZSt4cout = external dso_local global %"class.std::basic_ostream", align 8
@llvm.global_ctors = appending global [1 x { i32, void ()*, i8* }] [{ i32, void ()*, i8* } { i32 65535, void ()* @_GLOBAL__sub_I_1219.cpp, i8* null }]

; Function Attrs: noinline uwtable
define internal void @__cxx_global_var_init() #0 section ".text.startup" {
  call void @_ZNSt8ios_base4InitC1Ev(%"class.std::ios_base::Init"* @_ZStL8__ioinit)
  %1 = call i32 @__cxa_atexit(void (i8*)* bitcast (void (%"class.std::ios_base::Init"*)* @_ZNSt8ios_base4InitD1Ev to void (i8*)*), i8* getelementptr inbounds (%"class.std::ios_base::Init", %"class.std::ios_base::Init"* @_ZStL8__ioinit, i32 0, i32 0), i8* @__dso_handle) #3
  ret void
}

declare dso_local void @_ZNSt8ios_base4InitC1Ev(%"class.std::ios_base::Init"*) unnamed_addr #1

; Function Attrs: nounwind
declare dso_local void @_ZNSt8ios_base4InitD1Ev(%"class.std::ios_base::Init"*) unnamed_addr #2

; Function Attrs: nounwind
declare dso_local i32 @__cxa_atexit(void (i8*)*, i8*, i8*) #3

; Function Attrs: noinline norecurse uwtable
define dso_local i32 @main() #4 {
  %1 = alloca i32, align 4
  %2 = alloca [256 x i8], align 16
  %3 = alloca [256 x i8], align 16
  %4 = alloca [256 x i8], align 16
  %5 = alloca i32, align 4
  %6 = alloca i8*, align 8
  %7 = alloca i8*, align 8
  store i32 0, i32* %1, align 4
  %8 = getelementptr inbounds [256 x i8], [256 x i8]* %2, i64 0, i64 0
  %9 = call dereferenceable(280) %"class.std::basic_istream"* @_ZNSi7getlineEPcl(%"class.std::basic_istream"* @_ZSt3cin, i8* %8, i64 256)
  %10 = getelementptr inbounds [256 x i8], [256 x i8]* %3, i64 0, i64 0
  %11 = call dereferenceable(280) %"class.std::basic_istream"* @_ZNSi7getlineEPcl(%"class.std::basic_istream"* @_ZSt3cin, i8* %10, i64 256)
  %12 = getelementptr inbounds [256 x i8], [256 x i8]* %4, i64 0, i64 0
  %13 = call dereferenceable(280) %"class.std::basic_istream"* @_ZNSi7getlineEPcl(%"class.std::basic_istream"* @_ZSt3cin, i8* %12, i64 256)
  %14 = getelementptr inbounds [256 x i8], [256 x i8]* %2, i64 0, i64 0
  %15 = getelementptr inbounds [256 x i8], [256 x i8]* %3, i64 0, i64 0
  %16 = call i8* @strstr(i8* %14, i8* %15) #6
  store i8* %16, i8** %6, align 8
  %17 = load i8*, i8** %6, align 8
  %18 = icmp eq i8* %17, null
  br i1 %18, label %19, label %22

19:                                               ; preds = %0
  %20 = getelementptr inbounds [256 x i8], [256 x i8]* %2, i64 0, i64 0
  %21 = call dereferenceable(272) %"class.std::basic_ostream"* @_ZStlsISt11char_traitsIcEERSt13basic_ostreamIcT_ES5_PKc(%"class.std::basic_ostream"* dereferenceable(272) @_ZSt4cout, i8* %20)
  br label %61

22:                                               ; preds = %0
  %23 = getelementptr inbounds [256 x i8], [256 x i8]* %2, i64 0, i64 0
  store i8* %23, i8** %7, align 8
  store i32 0, i32* %5, align 4
  br label %24

24:                                               ; preds = %39, %22
  %25 = load i32, i32* %5, align 4
  %26 = sext i32 %25 to i64
  %27 = load i8*, i8** %6, align 8
  %28 = load i8*, i8** %7, align 8
  %29 = ptrtoint i8* %27 to i64
  %30 = ptrtoint i8* %28 to i64
  %31 = sub i64 %29, %30
  %32 = icmp slt i64 %26, %31
  br i1 %32, label %33, label %42

33:                                               ; preds = %24
  %34 = load i32, i32* %5, align 4
  %35 = sext i32 %34 to i64
  %36 = getelementptr inbounds [256 x i8], [256 x i8]* %2, i64 0, i64 %35
  %37 = load i8, i8* %36, align 1
  %38 = call dereferenceable(272) %"class.std::basic_ostream"* @_ZStlsISt11char_traitsIcEERSt13basic_ostreamIcT_ES5_c(%"class.std::basic_ostream"* dereferenceable(272) @_ZSt4cout, i8 signext %37)
  br label %39

39:                                               ; preds = %33
  %40 = load i32, i32* %5, align 4
  %41 = add nsw i32 %40, 1
  store i32 %41, i32* %5, align 4
  br label %24

42:                                               ; preds = %24
  %43 = getelementptr inbounds [256 x i8], [256 x i8]* %4, i64 0, i64 0
  %44 = call dereferenceable(272) %"class.std::basic_ostream"* @_ZStlsISt11char_traitsIcEERSt13basic_ostreamIcT_ES5_PKc(%"class.std::basic_ostream"* dereferenceable(272) @_ZSt4cout, i8* %43)
  %45 = load i8*, i8** %6, align 8
  %46 = getelementptr inbounds [256 x i8], [256 x i8]* %3, i64 0, i64 0
  %47 = call i64 @strlen(i8* %46) #6
  %48 = getelementptr inbounds i8, i8* %45, i64 %47
  store i8* %48, i8** %6, align 8
  br label %49

49:                                               ; preds = %54, %42
  %50 = load i8*, i8** %6, align 8
  %51 = load i8, i8* %50, align 1
  %52 = sext i8 %51 to i32
  %53 = icmp ne i32 %52, 0
  br i1 %53, label %54, label %60

54:                                               ; preds = %49
  %55 = load i8*, i8** %6, align 8
  %56 = load i8, i8* %55, align 1
  %57 = call dereferenceable(272) %"class.std::basic_ostream"* @_ZStlsISt11char_traitsIcEERSt13basic_ostreamIcT_ES5_c(%"class.std::basic_ostream"* dereferenceable(272) @_ZSt4cout, i8 signext %56)
  %58 = load i8*, i8** %6, align 8
  %59 = getelementptr inbounds i8, i8* %58, i32 1
  store i8* %59, i8** %6, align 8
  br label %49

60:                                               ; preds = %49
  br label %61

61:                                               ; preds = %60, %19
  ret i32 0
}

declare dso_local dereferenceable(280) %"class.std::basic_istream"* @_ZNSi7getlineEPcl(%"class.std::basic_istream"*, i8*, i64) #1

; Function Attrs: nounwind readonly
declare dso_local i8* @strstr(i8*, i8*) #5

declare dso_local dereferenceable(272) %"class.std::basic_ostream"* @_ZStlsISt11char_traitsIcEERSt13basic_ostreamIcT_ES5_PKc(%"class.std::basic_ostream"* dereferenceable(272), i8*) #1

declare dso_local dereferenceable(272) %"class.std::basic_ostream"* @_ZStlsISt11char_traitsIcEERSt13basic_ostreamIcT_ES5_c(%"class.std::basic_ostream"* dereferenceable(272), i8 signext) #1

; Function Attrs: nounwind readonly
declare dso_local i64 @strlen(i8*) #5

; Function Attrs: noinline uwtable
define internal void @_GLOBAL__sub_I_1219.cpp() #0 section ".text.startup" {
  call void @__cxx_global_var_init()
  ret void
}


!llvm.module.flags = !{!0}
!llvm.ident = !{!1}

!0 = !{i32 1, !"wchar_size", i32 4}
!1 = !{!"clang version 10.0.0-4ubuntu1 "}
