; ModuleID = 'source-C-CXX/6/1219.cpp'
source_filename = "source-C-CXX/6/1219.cpp"
target datalayout = "e-m:e-p270:32:32-p271:32:32-p272:64:64-i64:64-f80:128-n8:16:32:64-S128"
target triple = "x86_64-pc-linux-gnu"

%"class.std::ios_base::Init" = type { i8 }
%"class.std::basic_istream" = type { i32 (...)**, i64, %"class.std::basic_ios" }
%"class.std::basic_ios" = type { %"class.std::ios_base", %"class.std::basic_ostream"*, i8, i8, %"class.std::basic_streambuf"*, %"class.std::ctype"*, %"class.std::num_put"*, %"class.std::num_get"* }
%"class.std::ios_base" = type { i32 (...)**, i64, i64, i32, i32, i32, %"struct.std::ios_base::_Callback_list"*, %"struct.std::ios_base::_Words", [8 x %"struct.std::ios_base::_Words"], i32, %"struct.std::ios_base::_Words"*, %"class.std::locale" }
%"struct.std::ios_base::_Callback_list" = type { %"struct.std::ios_base::_Callback_list"*, void (i32, %"class.std::ios_base"*, i32)*, i32, i32 }
%"struct.std::ios_base::_Words" = type { i8*, i64 }
%"class.std::locale" = type { %"class.std::locale::_Impl"* }
%"class.std::locale::_Impl" = type { i32, %"class.std::locale::facet"**, i64, %"class.std::locale::facet"**, i8** }
%"class.std::locale::facet" = type <{ i32 (...)**, i32, [4 x i8] }>
%"class.std::basic_ostream" = type { i32 (...)**, %"class.std::basic_ios" }
%"class.std::basic_streambuf" = type { i32 (...)**, i8*, i8*, i8*, i8*, i8*, i8*, %"class.std::locale" }
%"class.std::ctype" = type <{ %"class.std::locale::facet.base", [4 x i8], %struct.__locale_struct*, i8, [7 x i8], i32*, i32*, i16*, i8, [256 x i8], [256 x i8], i8, [6 x i8] }>
%"class.std::locale::facet.base" = type <{ i32 (...)**, i32 }>
%struct.__locale_struct = type { [13 x %struct.__locale_data*], i16*, i32*, i32*, [13 x i8*] }
%struct.__locale_data = type opaque
%"class.std::num_put" = type { %"class.std::locale::facet.base", [4 x i8] }
%"class.std::num_get" = type { %"class.std::locale::facet.base", [4 x i8] }

@_ZStL8__ioinit = internal global %"class.std::ios_base::Init" zeroinitializer, align 1
@__dso_handle = external hidden global i8
@_ZSt3cin = external global %"class.std::basic_istream", align 8
@_ZSt4cout = external global %"class.std::basic_ostream", align 8
@llvm.global_ctors = appending global [1 x { i32, void ()*, i8* }] [{ i32, void ()*, i8* } { i32 65535, void ()* @_GLOBAL__sub_I_1219.cpp, i8* null }]

declare void @_ZNSt8ios_base4InitC1Ev(%"class.std::ios_base::Init"* nonnull align 1 dereferenceable(1)) unnamed_addr #0

; Function Attrs: nounwind
declare void @_ZNSt8ios_base4InitD1Ev(%"class.std::ios_base::Init"* nonnull align 1 dereferenceable(1)) unnamed_addr #1

; Function Attrs: nofree nounwind
declare i32 @__cxa_atexit(void (i8*)*, i8*, i8*) local_unnamed_addr #2

; Function Attrs: mustprogress norecurse sspstrong uwtable
define dso_local i32 @main() local_unnamed_addr #3 {
  %1 = alloca i8, align 1
  %2 = alloca i8, align 1
  %3 = alloca [256 x i8], align 16
  %4 = alloca [256 x i8], align 16
  %5 = alloca [256 x i8], align 16
  %6 = getelementptr inbounds [256 x i8], [256 x i8]* %3, i64 0, i64 0
  call void @llvm.lifetime.start.p0i8(i64 256, i8* nonnull %6) #8
  %7 = getelementptr inbounds [256 x i8], [256 x i8]* %4, i64 0, i64 0
  call void @llvm.lifetime.start.p0i8(i64 256, i8* nonnull %7) #8
  %8 = getelementptr inbounds [256 x i8], [256 x i8]* %5, i64 0, i64 0
  call void @llvm.lifetime.start.p0i8(i64 256, i8* nonnull %8) #8
  %9 = load i8*, i8** bitcast (%"class.std::basic_istream"* @_ZSt3cin to i8**), align 8, !tbaa !5
  %10 = getelementptr i8, i8* %9, i64 -24
  %11 = bitcast i8* %10 to i64*
  %12 = load i64, i64* %11, align 8
  %13 = add nsw i64 %12, 240
  %14 = getelementptr inbounds i8, i8* bitcast (%"class.std::basic_istream"* @_ZSt3cin to i8*), i64 %13
  %15 = bitcast i8* %14 to %"class.std::ctype"**
  %16 = load %"class.std::ctype"*, %"class.std::ctype"** %15, align 8, !tbaa !8
  %17 = icmp eq %"class.std::ctype"* %16, null
  br i1 %17, label %18, label %19

18:                                               ; preds = %0
  tail call void @_ZSt16__throw_bad_castv() #9
  unreachable

19:                                               ; preds = %0
  %20 = getelementptr inbounds %"class.std::ctype", %"class.std::ctype"* %16, i64 0, i32 8
  %21 = load i8, i8* %20, align 8, !tbaa !13
  %22 = icmp eq i8 %21, 0
  br i1 %22, label %26, label %23

23:                                               ; preds = %19
  %24 = getelementptr inbounds %"class.std::ctype", %"class.std::ctype"* %16, i64 0, i32 9, i64 10
  %25 = load i8, i8* %24, align 1, !tbaa !15
  br label %32

26:                                               ; preds = %19
  tail call void @_ZNKSt5ctypeIcE13_M_widen_initEv(%"class.std::ctype"* nonnull align 8 dereferenceable(570) %16)
  %27 = bitcast %"class.std::ctype"* %16 to i8 (%"class.std::ctype"*, i8)***
  %28 = load i8 (%"class.std::ctype"*, i8)**, i8 (%"class.std::ctype"*, i8)*** %27, align 8, !tbaa !5
  %29 = getelementptr inbounds i8 (%"class.std::ctype"*, i8)*, i8 (%"class.std::ctype"*, i8)** %28, i64 6
  %30 = load i8 (%"class.std::ctype"*, i8)*, i8 (%"class.std::ctype"*, i8)** %29, align 8
  %31 = tail call signext i8 %30(%"class.std::ctype"* nonnull align 8 dereferenceable(570) %16, i8 signext 10)
  br label %32

32:                                               ; preds = %23, %26
  %33 = phi i8 [ %25, %23 ], [ %31, %26 ]
  %34 = call nonnull align 8 dereferenceable(16) %"class.std::basic_istream"* @_ZNSi7getlineEPclc(%"class.std::basic_istream"* nonnull align 8 dereferenceable(16) @_ZSt3cin, i8* nonnull %6, i64 256, i8 signext %33)
  %35 = load i8*, i8** bitcast (%"class.std::basic_istream"* @_ZSt3cin to i8**), align 8, !tbaa !5
  %36 = getelementptr i8, i8* %35, i64 -24
  %37 = bitcast i8* %36 to i64*
  %38 = load i64, i64* %37, align 8
  %39 = add nsw i64 %38, 240
  %40 = getelementptr inbounds i8, i8* bitcast (%"class.std::basic_istream"* @_ZSt3cin to i8*), i64 %39
  %41 = bitcast i8* %40 to %"class.std::ctype"**
  %42 = load %"class.std::ctype"*, %"class.std::ctype"** %41, align 8, !tbaa !8
  %43 = icmp eq %"class.std::ctype"* %42, null
  br i1 %43, label %44, label %45

44:                                               ; preds = %32
  call void @_ZSt16__throw_bad_castv() #9
  unreachable

45:                                               ; preds = %32
  %46 = getelementptr inbounds %"class.std::ctype", %"class.std::ctype"* %42, i64 0, i32 8
  %47 = load i8, i8* %46, align 8, !tbaa !13
  %48 = icmp eq i8 %47, 0
  br i1 %48, label %52, label %49

49:                                               ; preds = %45
  %50 = getelementptr inbounds %"class.std::ctype", %"class.std::ctype"* %42, i64 0, i32 9, i64 10
  %51 = load i8, i8* %50, align 1, !tbaa !15
  br label %58

52:                                               ; preds = %45
  call void @_ZNKSt5ctypeIcE13_M_widen_initEv(%"class.std::ctype"* nonnull align 8 dereferenceable(570) %42)
  %53 = bitcast %"class.std::ctype"* %42 to i8 (%"class.std::ctype"*, i8)***
  %54 = load i8 (%"class.std::ctype"*, i8)**, i8 (%"class.std::ctype"*, i8)*** %53, align 8, !tbaa !5
  %55 = getelementptr inbounds i8 (%"class.std::ctype"*, i8)*, i8 (%"class.std::ctype"*, i8)** %54, i64 6
  %56 = load i8 (%"class.std::ctype"*, i8)*, i8 (%"class.std::ctype"*, i8)** %55, align 8
  %57 = call signext i8 %56(%"class.std::ctype"* nonnull align 8 dereferenceable(570) %42, i8 signext 10)
  br label %58

58:                                               ; preds = %49, %52
  %59 = phi i8 [ %51, %49 ], [ %57, %52 ]
  %60 = call nonnull align 8 dereferenceable(16) %"class.std::basic_istream"* @_ZNSi7getlineEPclc(%"class.std::basic_istream"* nonnull align 8 dereferenceable(16) @_ZSt3cin, i8* nonnull %7, i64 256, i8 signext %59)
  %61 = load i8*, i8** bitcast (%"class.std::basic_istream"* @_ZSt3cin to i8**), align 8, !tbaa !5
  %62 = getelementptr i8, i8* %61, i64 -24
  %63 = bitcast i8* %62 to i64*
  %64 = load i64, i64* %63, align 8
  %65 = add nsw i64 %64, 240
  %66 = getelementptr inbounds i8, i8* bitcast (%"class.std::basic_istream"* @_ZSt3cin to i8*), i64 %65
  %67 = bitcast i8* %66 to %"class.std::ctype"**
  %68 = load %"class.std::ctype"*, %"class.std::ctype"** %67, align 8, !tbaa !8
  %69 = icmp eq %"class.std::ctype"* %68, null
  br i1 %69, label %70, label %71

70:                                               ; preds = %58
  call void @_ZSt16__throw_bad_castv() #9
  unreachable

71:                                               ; preds = %58
  %72 = getelementptr inbounds %"class.std::ctype", %"class.std::ctype"* %68, i64 0, i32 8
  %73 = load i8, i8* %72, align 8, !tbaa !13
  %74 = icmp eq i8 %73, 0
  br i1 %74, label %78, label %75

75:                                               ; preds = %71
  %76 = getelementptr inbounds %"class.std::ctype", %"class.std::ctype"* %68, i64 0, i32 9, i64 10
  %77 = load i8, i8* %76, align 1, !tbaa !15
  br label %84

78:                                               ; preds = %71
  call void @_ZNKSt5ctypeIcE13_M_widen_initEv(%"class.std::ctype"* nonnull align 8 dereferenceable(570) %68)
  %79 = bitcast %"class.std::ctype"* %68 to i8 (%"class.std::ctype"*, i8)***
  %80 = load i8 (%"class.std::ctype"*, i8)**, i8 (%"class.std::ctype"*, i8)*** %79, align 8, !tbaa !5
  %81 = getelementptr inbounds i8 (%"class.std::ctype"*, i8)*, i8 (%"class.std::ctype"*, i8)** %80, i64 6
  %82 = load i8 (%"class.std::ctype"*, i8)*, i8 (%"class.std::ctype"*, i8)** %81, align 8
  %83 = call signext i8 %82(%"class.std::ctype"* nonnull align 8 dereferenceable(570) %68, i8 signext 10)
  br label %84

84:                                               ; preds = %75, %78
  %85 = phi i8 [ %77, %75 ], [ %83, %78 ]
  %86 = call nonnull align 8 dereferenceable(16) %"class.std::basic_istream"* @_ZNSi7getlineEPclc(%"class.std::basic_istream"* nonnull align 8 dereferenceable(16) @_ZSt3cin, i8* nonnull %8, i64 256, i8 signext %85)
  %87 = call i8* @strstr(i8* noundef nonnull %6, i8* noundef nonnull %7) #10
  %88 = icmp eq i8* %87, null
  br i1 %88, label %94, label %89

89:                                               ; preds = %84
  %90 = ptrtoint i8* %87 to i64
  %91 = ptrtoint [256 x i8]* %3 to i64
  %92 = sub i64 %90, %91
  %93 = icmp sgt i64 %92, 0
  br i1 %93, label %97, label %104

94:                                               ; preds = %84
  %95 = call i64 @strlen(i8* noundef nonnull dereferenceable(1) %6) #8
  %96 = call nonnull align 8 dereferenceable(8) %"class.std::basic_ostream"* @_ZSt16__ostream_insertIcSt11char_traitsIcEERSt13basic_ostreamIT_T0_ES6_PKS3_l(%"class.std::basic_ostream"* nonnull align 8 dereferenceable(8) @_ZSt4cout, i8* nonnull %6, i64 %95)
  br label %118

97:                                               ; preds = %89, %97
  %98 = phi i64 [ %102, %97 ], [ 0, %89 ]
  %99 = getelementptr inbounds [256 x i8], [256 x i8]* %3, i64 0, i64 %98
  %100 = load i8, i8* %99, align 1, !tbaa !15
  call void @llvm.lifetime.start.p0i8(i64 1, i8* nonnull %2)
  store i8 %100, i8* %2, align 1, !tbaa !15
  %101 = call nonnull align 8 dereferenceable(8) %"class.std::basic_ostream"* @_ZSt16__ostream_insertIcSt11char_traitsIcEERSt13basic_ostreamIT_T0_ES6_PKS3_l(%"class.std::basic_ostream"* nonnull align 8 dereferenceable(8) @_ZSt4cout, i8* nonnull %2, i64 1)
  call void @llvm.lifetime.end.p0i8(i64 1, i8* nonnull %2)
  %102 = add nuw nsw i64 %98, 1
  %103 = icmp eq i64 %102, %92
  br i1 %103, label %104, label %97, !llvm.loop !16

104:                                              ; preds = %97, %89
  %105 = call i64 @strlen(i8* noundef nonnull dereferenceable(1) %8) #8
  %106 = call nonnull align 8 dereferenceable(8) %"class.std::basic_ostream"* @_ZSt16__ostream_insertIcSt11char_traitsIcEERSt13basic_ostreamIT_T0_ES6_PKS3_l(%"class.std::basic_ostream"* nonnull align 8 dereferenceable(8) @_ZSt4cout, i8* nonnull %8, i64 %105)
  %107 = call i64 @strlen(i8* noundef nonnull %7) #10
  %108 = getelementptr inbounds i8, i8* %87, i64 %107
  %109 = load i8, i8* %108, align 1, !tbaa !15
  %110 = icmp eq i8 %109, 0
  br i1 %110, label %118, label %111

111:                                              ; preds = %104, %111
  %112 = phi i8 [ %116, %111 ], [ %109, %104 ]
  %113 = phi i8* [ %115, %111 ], [ %108, %104 ]
  call void @llvm.lifetime.start.p0i8(i64 1, i8* nonnull %1)
  store i8 %112, i8* %1, align 1, !tbaa !15
  %114 = call nonnull align 8 dereferenceable(8) %"class.std::basic_ostream"* @_ZSt16__ostream_insertIcSt11char_traitsIcEERSt13basic_ostreamIT_T0_ES6_PKS3_l(%"class.std::basic_ostream"* nonnull align 8 dereferenceable(8) @_ZSt4cout, i8* nonnull %1, i64 1)
  call void @llvm.lifetime.end.p0i8(i64 1, i8* nonnull %1)
  %115 = getelementptr inbounds i8, i8* %113, i64 1
  %116 = load i8, i8* %115, align 1, !tbaa !15
  %117 = icmp eq i8 %116, 0
  br i1 %117, label %118, label %111, !llvm.loop !18

118:                                              ; preds = %111, %104, %94
  call void @llvm.lifetime.end.p0i8(i64 256, i8* nonnull %8) #8
  call void @llvm.lifetime.end.p0i8(i64 256, i8* nonnull %7) #8
  call void @llvm.lifetime.end.p0i8(i64 256, i8* nonnull %6) #8
  ret i32 0
}

; Function Attrs: argmemonly mustprogress nofree nosync nounwind willreturn
declare void @llvm.lifetime.start.p0i8(i64 immarg, i8* nocapture) #4

; Function Attrs: argmemonly mustprogress nofree nounwind readonly willreturn
declare i8* @strstr(i8*, i8* nocapture) local_unnamed_addr #5

; Function Attrs: argmemonly mustprogress nofree nounwind readonly willreturn
declare i64 @strlen(i8* nocapture) local_unnamed_addr #5

; Function Attrs: argmemonly mustprogress nofree nosync nounwind willreturn
declare void @llvm.lifetime.end.p0i8(i64 immarg, i8* nocapture) #4

declare nonnull align 8 dereferenceable(16) %"class.std::basic_istream"* @_ZNSi7getlineEPclc(%"class.std::basic_istream"* nonnull align 8 dereferenceable(16), i8*, i64, i8 signext) local_unnamed_addr #0

; Function Attrs: noreturn
declare void @_ZSt16__throw_bad_castv() local_unnamed_addr #6

declare void @_ZNKSt5ctypeIcE13_M_widen_initEv(%"class.std::ctype"* nonnull align 8 dereferenceable(570)) local_unnamed_addr #0

declare nonnull align 8 dereferenceable(8) %"class.std::basic_ostream"* @_ZSt16__ostream_insertIcSt11char_traitsIcEERSt13basic_ostreamIT_T0_ES6_PKS3_l(%"class.std::basic_ostream"* nonnull align 8 dereferenceable(8), i8*, i64) local_unnamed_addr #0

; Function Attrs: sspstrong uwtable
define internal void @_GLOBAL__sub_I_1219.cpp() #7 section ".text.startup" {
  tail call void @_ZNSt8ios_base4InitC1Ev(%"class.std::ios_base::Init"* nonnull align 1 dereferenceable(1) @_ZStL8__ioinit)
  %1 = tail call i32 @__cxa_atexit(void (i8*)* bitcast (void (%"class.std::ios_base::Init"*)* @_ZNSt8ios_base4InitD1Ev to void (i8*)*), i8* getelementptr inbounds (%"class.std::ios_base::Init", %"class.std::ios_base::Init"* @_ZStL8__ioinit, i64 0, i32 0), i8* nonnull @__dso_handle) #8
  ret void
}


!llvm.module.flags = !{!0, !1, !2, !3}
!llvm.ident = !{!4}

!0 = !{i32 1, !"wchar_size", i32 4}
!1 = !{i32 7, !"PIC Level", i32 2}
!2 = !{i32 7, !"PIE Level", i32 2}
!3 = !{i32 7, !"uwtable", i32 1}
!4 = !{!"clang version 13.0.0"}
!5 = !{!6, !6, i64 0}
!6 = !{!"vtable pointer", !7, i64 0}
!7 = !{!"Simple C++ TBAA"}
!8 = !{!9, !10, i64 240}
!9 = !{!"_ZTSSt9basic_iosIcSt11char_traitsIcEE", !10, i64 216, !11, i64 224, !12, i64 225, !10, i64 232, !10, i64 240, !10, i64 248, !10, i64 256}
!10 = !{!"any pointer", !11, i64 0}
!11 = !{!"omnipotent char", !7, i64 0}
!12 = !{!"bool", !11, i64 0}
!13 = !{!14, !11, i64 56}
!14 = !{!"_ZTSSt5ctypeIcE", !10, i64 16, !12, i64 24, !10, i64 32, !10, i64 40, !10, i64 48, !11, i64 56, !11, i64 57, !11, i64 313, !11, i64 569}
!15 = !{!11, !11, i64 0}
!16 = distinct !{!16, !17}
!17 = !{!"llvm.loop.mustprogress"}
!18 = distinct !{!18, !17}
